target datalayout = "e-m:e-p270:32:32-p271:32:32-p272:64:64-i64:64-i128:128-f80:128-n8:16:32:64-S128"
target triple = "x86_64-pc-linux-gnu"

%struct.FFEBUR128State = type { i32, i32, i64, ptr }
%struct.FFEBUR128StateInternal = type { ptr, i64, i64, i64, ptr, i64, [5 x double], [5 x double], [5 x [5 x double]], ptr, ptr, i64, ptr, i64, ptr }

@histogram_energies = internal global [1000 x double] zeroinitializer, align 16
@histogram_energy_boundaries = internal global [1001 x double] zeroinitializer, align 16

; Function Attrs: nounwind uwtable
define internal double @ebur128_energy_to_loudness(double noundef %0) #0 {
  %2 = alloca double, align 8
  store double %0, ptr %2, align 8, !tbaa !38
  %3 = load double, ptr %2, align 8, !tbaa !38
  %4 = call nsz double @llvm.log10.f64(double %3)
  %5 = call nsz double @llvm.fmuladd.f64(double 1.000000e+01, double %4, double -6.910000e-01)
  ret double %5
}

; Function Attrs: nounwind uwtable
define internal i64 @find_histogram_index(double noundef %0) #0 {
  %2 = alloca double, align 8
  %3 = alloca i64, align 8
  %4 = alloca i64, align 8
  %5 = alloca i64, align 8
  store double %0, ptr %2, align 8, !tbaa !38
  call void @llvm.lifetime.start.p0(i64 8, ptr %3) #7
  store i64 0, ptr %3, align 8, !tbaa !8
  call void @llvm.lifetime.start.p0(i64 8, ptr %4) #7
  store i64 1000, ptr %4, align 8, !tbaa !8
  call void @llvm.lifetime.start.p0(i64 8, ptr %5) #7
  br label %6

6:                                                ; preds = %21, %1
  %7 = load i64, ptr %3, align 8, !tbaa !8
  %8 = load i64, ptr %4, align 8, !tbaa !8
  %9 = add i64 %7, %8
  %10 = udiv i64 %9, 2
  store i64 %10, ptr %5, align 8, !tbaa !8
  %11 = load double, ptr %2, align 8, !tbaa !38
  %12 = load i64, ptr %5, align 8, !tbaa !8
  %13 = getelementptr inbounds nuw [1001 x double], ptr @histogram_energy_boundaries, i64 0, i64 %12
  %14 = load double, ptr %13, align 8, !tbaa !38
  %15 = fcmp nsz oge double %11, %14
  br i1 %15, label %16, label %18

16:                                               ; preds = %6
  %17 = load i64, ptr %5, align 8, !tbaa !8
  store i64 %17, ptr %3, align 8, !tbaa !8
  br label %20

18:                                               ; preds = %6
  %19 = load i64, ptr %5, align 8, !tbaa !8
  store i64 %19, ptr %4, align 8, !tbaa !8
  br label %20

20:                                               ; preds = %18, %16
  br label %21

21:                                               ; preds = %20
  %22 = load i64, ptr %4, align 8, !tbaa !8
  %23 = load i64, ptr %3, align 8, !tbaa !8
  %24 = sub i64 %22, %23
  %25 = icmp ne i64 %24, 1
  br i1 %25, label %6, label %26, !llvm.loop !63

26:                                               ; preds = %21
  %27 = load i64, ptr %3, align 8, !tbaa !8
  call void @llvm.lifetime.end.p0(i64 8, ptr %5) #7
  call void @llvm.lifetime.end.p0(i64 8, ptr %4) #7
  call void @llvm.lifetime.end.p0(i64 8, ptr %3) #7
  ret i64 %27
}

; Function Attrs: nounwind uwtable
define internal i32 @ebur128_calc_relative_threshold(ptr noundef %0, i64 noundef %1, ptr noundef %2) #0 {
  %4 = alloca ptr, align 8
  %5 = alloca i64, align 8
  %6 = alloca ptr, align 8
  %7 = alloca i64, align 8
  %8 = alloca i64, align 8
  %9 = alloca i32, align 4
  %10 = alloca ptr, align 8
  store ptr %0, ptr %4, align 8, !tbaa !44
  store i64 %1, ptr %5, align 8, !tbaa !8
  store ptr %2, ptr %6, align 8, !tbaa !46
  call void @llvm.lifetime.start.p0(i64 8, ptr %7) #7
  call void @llvm.lifetime.start.p0(i64 8, ptr %8) #7
  call void @llvm.lifetime.start.p0(i64 4, ptr %9) #7
  store i32 0, ptr %9, align 4, !tbaa !4
  %11 = load ptr, ptr %6, align 8, !tbaa !46
  store double 0.000000e+00, ptr %11, align 8, !tbaa !38
  store i64 0, ptr %7, align 8, !tbaa !8
  br label %12

12:                                               ; preds = %52, %3
  %13 = load i64, ptr %7, align 8, !tbaa !8
  %14 = load i64, ptr %5, align 8, !tbaa !8
  %15 = icmp ult i64 %13, %14
  br i1 %15, label %16, label %55

16:                                               ; preds = %12
  call void @llvm.lifetime.start.p0(i64 8, ptr %10) #7
  %17 = load ptr, ptr %4, align 8, !tbaa !44
  %18 = load i64, ptr %7, align 8, !tbaa !8
  %19 = getelementptr inbounds nuw ptr, ptr %17, i64 %18
  %20 = load ptr, ptr %19, align 8, !tbaa !10
  %21 = getelementptr inbounds nuw %struct.FFEBUR128State, ptr %20, i32 0, i32 3
  %22 = load ptr, ptr %21, align 8, !tbaa !13
  %23 = getelementptr inbounds nuw %struct.FFEBUR128StateInternal, ptr %22, i32 0, i32 9
  %24 = load ptr, ptr %23, align 8, !tbaa !29
  store ptr %24, ptr %10, align 8, !tbaa !51
  store i64 0, ptr %8, align 8, !tbaa !8
  br label %25

25:                                               ; preds = %48, %16
  %26 = load i64, ptr %8, align 8, !tbaa !8
  %27 = icmp ult i64 %26, 1000
  br i1 %27, label %28, label %51

28:                                               ; preds = %25
  %29 = load ptr, ptr %10, align 8, !tbaa !51
  %30 = load i64, ptr %8, align 8, !tbaa !8
  %31 = getelementptr inbounds nuw i64, ptr %29, i64 %30
  %32 = load i64, ptr %31, align 8, !tbaa !8
  %33 = uitofp i64 %32 to double
  %34 = load i64, ptr %8, align 8, !tbaa !8
  %35 = getelementptr inbounds nuw [1000 x double], ptr @histogram_energies, i64 0, i64 %34
  %36 = load double, ptr %35, align 8, !tbaa !38
  %37 = load ptr, ptr %6, align 8, !tbaa !46
  %38 = load double, ptr %37, align 8, !tbaa !38
  %39 = call nsz double @llvm.fmuladd.f64(double %33, double %36, double %38)
  store double %39, ptr %37, align 8, !tbaa !38
  %40 = load ptr, ptr %10, align 8, !tbaa !51
  %41 = load i64, ptr %8, align 8, !tbaa !8
  %42 = getelementptr inbounds nuw i64, ptr %40, i64 %41
  %43 = load i64, ptr %42, align 8, !tbaa !8
  %44 = load i32, ptr %9, align 4, !tbaa !4
  %45 = sext i32 %44 to i64
  %46 = add i64 %45, %43
  %47 = trunc i64 %46 to i32
  store i32 %47, ptr %9, align 4, !tbaa !4
  br label %48

48:                                               ; preds = %28
  %49 = load i64, ptr %8, align 8, !tbaa !8
  %50 = add i64 %49, 1
  store i64 %50, ptr %8, align 8, !tbaa !8
  br label %25, !llvm.loop !52

51:                                               ; preds = %25
  call void @llvm.lifetime.end.p0(i64 8, ptr %10) #7
  br label %52

52:                                               ; preds = %51
  %53 = load i64, ptr %7, align 8, !tbaa !8
  %54 = add i64 %53, 1
  store i64 %54, ptr %7, align 8, !tbaa !8
  br label %12, !llvm.loop !53

55:                                               ; preds = %12
  %56 = load i32, ptr %9, align 4, !tbaa !4
  %57 = icmp ne i32 %56, 0
  br i1 %57, label %58, label %68

58:                                               ; preds = %55
  %59 = load i32, ptr %9, align 4, !tbaa !4
  %60 = sitofp i32 %59 to double
  %61 = load ptr, ptr %6, align 8, !tbaa !46
  %62 = load double, ptr %61, align 8, !tbaa !38
  %63 = fdiv nsz double %62, %60
  store double %63, ptr %61, align 8, !tbaa !38
  %64 = call nsz double @llvm.pow.f64(double 1.000000e+01, double -1.000000e+00)
  %65 = load ptr, ptr %6, align 8, !tbaa !46
  %66 = load double, ptr %65, align 8, !tbaa !38
  %67 = fmul nsz double %66, %64
  store double %67, ptr %65, align 8, !tbaa !38
  br label %68

68:                                               ; preds = %58, %55
  %69 = load i32, ptr %9, align 4, !tbaa !4
  call void @llvm.lifetime.end.p0(i64 4, ptr %9) #7
  call void @llvm.lifetime.end.p0(i64 8, ptr %8) #7
  call void @llvm.lifetime.end.p0(i64 8, ptr %7) #7
  ret i32 %69
}

; Function Attrs: nounwind uwtable
define internal i32 @ebur128_gated_loudness(ptr noundef %0, i64 noundef %1, ptr noundef %2) #0 {
  %4 = alloca i32, align 4
  %5 = alloca ptr, align 8
  %6 = alloca i64, align 8
  %7 = alloca ptr, align 8
  %8 = alloca double, align 8
  %9 = alloca double, align 8
  %10 = alloca i64, align 8
  %11 = alloca i64, align 8
  %12 = alloca i64, align 8
  %13 = alloca i64, align 8
  %14 = alloca i32, align 4
  store ptr %0, ptr %5, align 8, !tbaa !44
  store i64 %1, ptr %6, align 8, !tbaa !8
  store ptr %2, ptr %7, align 8, !tbaa !46
  call void @llvm.lifetime.start.p0(i64 8, ptr %8) #7
  store double 0.000000e+00, ptr %8, align 8, !tbaa !38
  call void @llvm.lifetime.start.p0(i64 8, ptr %9) #7
  call void @llvm.lifetime.start.p0(i64 8, ptr %10) #7
  call void @llvm.lifetime.start.p0(i64 8, ptr %11) #7
  call void @llvm.lifetime.start.p0(i64 8, ptr %12) #7
  call void @llvm.lifetime.start.p0(i64 8, ptr %13) #7
  store i64 0, ptr %11, align 8, !tbaa !8
  br label %15

15:                                               ; preds = %30, %3
  %16 = load i64, ptr %11, align 8, !tbaa !8
  %17 = load i64, ptr %6, align 8, !tbaa !8
  %18 = icmp ult i64 %16, %17
  br i1 %18, label %19, label %33

19:                                               ; preds = %15
  %20 = load ptr, ptr %5, align 8, !tbaa !44
  %21 = load i64, ptr %11, align 8, !tbaa !8
  %22 = getelementptr inbounds nuw ptr, ptr %20, i64 %21
  %23 = load ptr, ptr %22, align 8, !tbaa !10
  %24 = getelementptr inbounds nuw %struct.FFEBUR128State, ptr %23, i32 0, i32 0
  %25 = load i32, ptr %24, align 8, !tbaa !25
  %26 = and i32 %25, 5
  %27 = icmp ne i32 %26, 5
  br i1 %27, label %28, label %29

28:                                               ; preds = %19
  store i32 -22, ptr %4, align 4
  store i32 1, ptr %14, align 4
  br label %118

29:                                               ; preds = %19
  br label %30

30:                                               ; preds = %29
  %31 = load i64, ptr %11, align 8, !tbaa !8
  %32 = add i64 %31, 1
  store i64 %32, ptr %11, align 8, !tbaa !8
  br label %15, !llvm.loop !54

33:                                               ; preds = %15
  %34 = load ptr, ptr %5, align 8, !tbaa !44
  %35 = load i64, ptr %6, align 8, !tbaa !8
  %36 = call i32 @ebur128_calc_relative_threshold(ptr noundef %34, i64 noundef %35, ptr noundef %9)
  %37 = icmp ne i32 %36, 0
  br i1 %37, label %40, label %38

38:                                               ; preds = %33
  %39 = load ptr, ptr %7, align 8, !tbaa !46
  store double 0xFFF0000000000000, ptr %39, align 8, !tbaa !38
  store i32 0, ptr %4, align 4
  store i32 1, ptr %14, align 4
  br label %118

40:                                               ; preds = %33
  store i64 0, ptr %10, align 8, !tbaa !8
  %41 = load double, ptr %9, align 8, !tbaa !38
  %42 = load double, ptr @histogram_energy_boundaries, align 16, !tbaa !38
  %43 = fcmp nsz olt double %41, %42
  br i1 %43, label %44, label %45

44:                                               ; preds = %40
  store i64 0, ptr %13, align 8, !tbaa !8
  br label %57

45:                                               ; preds = %40
  %46 = load double, ptr %9, align 8, !tbaa !38
  %47 = call i64 @find_histogram_index(double noundef %46)
  store i64 %47, ptr %13, align 8, !tbaa !8
  %48 = load double, ptr %9, align 8, !tbaa !38
  %49 = load i64, ptr %13, align 8, !tbaa !8
  %50 = getelementptr inbounds nuw [1000 x double], ptr @histogram_energies, i64 0, i64 %49
  %51 = load double, ptr %50, align 8, !tbaa !38
  %52 = fcmp nsz ogt double %48, %51
  br i1 %52, label %53, label %56

53:                                               ; preds = %45
  %54 = load i64, ptr %13, align 8, !tbaa !8
  %55 = add i64 %54, 1
  store i64 %55, ptr %13, align 8, !tbaa !8
  br label %56

56:                                               ; preds = %53, %45
  br label %57

57:                                               ; preds = %56, %44
  store i64 0, ptr %11, align 8, !tbaa !8
  br label %58

58:                                               ; preds = %102, %57
  %59 = load i64, ptr %11, align 8, !tbaa !8
  %60 = load i64, ptr %6, align 8, !tbaa !8
  %61 = icmp ult i64 %59, %60
  br i1 %61, label %62, label %105

62:                                               ; preds = %58
  %63 = load i64, ptr %13, align 8, !tbaa !8
  store i64 %63, ptr %12, align 8, !tbaa !8
  br label %64

64:                                               ; preds = %98, %62
  %65 = load i64, ptr %12, align 8, !tbaa !8
  %66 = icmp ult i64 %65, 1000
  br i1 %66, label %67, label %101

67:                                               ; preds = %64
  %68 = load ptr, ptr %5, align 8, !tbaa !44
  %69 = load i64, ptr %11, align 8, !tbaa !8
  %70 = getelementptr inbounds nuw ptr, ptr %68, i64 %69
  %71 = load ptr, ptr %70, align 8, !tbaa !10
  %72 = getelementptr inbounds nuw %struct.FFEBUR128State, ptr %71, i32 0, i32 3
  %73 = load ptr, ptr %72, align 8, !tbaa !13
  %74 = getelementptr inbounds nuw %struct.FFEBUR128StateInternal, ptr %73, i32 0, i32 9
  %75 = load ptr, ptr %74, align 8, !tbaa !29
  %76 = load i64, ptr %12, align 8, !tbaa !8
  %77 = getelementptr inbounds nuw i64, ptr %75, i64 %76
  %78 = load i64, ptr %77, align 8, !tbaa !8
  %79 = uitofp i64 %78 to double
  %80 = load i64, ptr %12, align 8, !tbaa !8
  %81 = getelementptr inbounds nuw [1000 x double], ptr @histogram_energies, i64 0, i64 %80
  %82 = load double, ptr %81, align 8, !tbaa !38
  %83 = load double, ptr %8, align 8, !tbaa !38
  %84 = call nsz double @llvm.fmuladd.f64(double %79, double %82, double %83)
  store double %84, ptr %8, align 8, !tbaa !38
  %85 = load ptr, ptr %5, align 8, !tbaa !44
  %86 = load i64, ptr %11, align 8, !tbaa !8
  %87 = getelementptr inbounds nuw ptr, ptr %85, i64 %86
  %88 = load ptr, ptr %87, align 8, !tbaa !10
  %89 = getelementptr inbounds nuw %struct.FFEBUR128State, ptr %88, i32 0, i32 3
  %90 = load ptr, ptr %89, align 8, !tbaa !13
  %91 = getelementptr inbounds nuw %struct.FFEBUR128StateInternal, ptr %90, i32 0, i32 9
  %92 = load ptr, ptr %91, align 8, !tbaa !29
  %93 = load i64, ptr %12, align 8, !tbaa !8
  %94 = getelementptr inbounds nuw i64, ptr %92, i64 %93
  %95 = load i64, ptr %94, align 8, !tbaa !8
  %96 = load i64, ptr %10, align 8, !tbaa !8
  %97 = add i64 %96, %95
  store i64 %97, ptr %10, align 8, !tbaa !8
  br label %98

98:                                               ; preds = %67
  %99 = load i64, ptr %12, align 8, !tbaa !8
  %100 = add i64 %99, 1
  store i64 %100, ptr %12, align 8, !tbaa !8
  br label %64, !llvm.loop !55

101:                                              ; preds = %64
  br label %102

102:                                              ; preds = %101
  %103 = load i64, ptr %11, align 8, !tbaa !8
  %104 = add i64 %103, 1
  store i64 %104, ptr %11, align 8, !tbaa !8
  br label %58, !llvm.loop !56

105:                                              ; preds = %58
  %106 = load i64, ptr %10, align 8, !tbaa !8
  %107 = icmp ne i64 %106, 0
  br i1 %107, label %110, label %108

108:                                              ; preds = %105
  %109 = load ptr, ptr %7, align 8, !tbaa !46
  store double 0xFFF0000000000000, ptr %109, align 8, !tbaa !38
  store i32 0, ptr %4, align 4
  store i32 1, ptr %14, align 4
  br label %118

110:                                              ; preds = %105
  %111 = load i64, ptr %10, align 8, !tbaa !8
  %112 = uitofp i64 %111 to double
  %113 = load double, ptr %8, align 8, !tbaa !38
  %114 = fdiv nsz double %113, %112
  store double %114, ptr %8, align 8, !tbaa !38
  %115 = load double, ptr %8, align 8, !tbaa !38
  %116 = call nsz double @ebur128_energy_to_loudness(double noundef %115)
  %117 = load ptr, ptr %7, align 8, !tbaa !46
  store double %116, ptr %117, align 8, !tbaa !38
  store i32 0, ptr %4, align 4
  store i32 1, ptr %14, align 4
  br label %118

118:                                              ; preds = %110, %108, %38, %28
  call void @llvm.lifetime.end.p0(i64 8, ptr %13) #7
  call void @llvm.lifetime.end.p0(i64 8, ptr %12) #7
  call void @llvm.lifetime.end.p0(i64 8, ptr %11) #7
  call void @llvm.lifetime.end.p0(i64 8, ptr %10) #7
  call void @llvm.lifetime.end.p0(i64 8, ptr %9) #7
  call void @llvm.lifetime.end.p0(i64 8, ptr %8) #7
  %119 = load i32, ptr %4, align 4
  ret i32 %119
}

; Function Attrs: nounwind uwtable
define i32 @ff_ebur128_loudness_global(ptr noundef %0, ptr noundef %1) #0 {
  %3 = alloca ptr, align 8
  %4 = alloca ptr, align 8
  store ptr %0, ptr %3, align 8, !tbaa !10
  store ptr %1, ptr %4, align 8, !tbaa !46
  %5 = load ptr, ptr %4, align 8, !tbaa !46
  %6 = call i32 @ebur128_gated_loudness(ptr noundef %3, i64 noundef 1, ptr noundef %5)
  ret i32 %6
}