; Function Attrs: nofree norecurse nosync nounwind memory(read, argmem: readwrite, inaccessiblemem: none) uwtable
define range(i32 -22, 1) i32 @ff_ebur128_loudness_global(ptr noundef readonly captures(none) %0, ptr noundef writeonly captures(none) %1) local_unnamed_addr #6 {
  %3 = load i32, ptr %0, align 8, !tbaa !25
  %4 = and i32 %3, 5
  %.not41.i = icmp eq i32 %4, 5
  br i1 %.not41.i, label %5, label %ebur128_gated_loudness.exit

5:                                                ; preds = %2
  %6 = getelementptr inbounds nuw i8, ptr %0, i64 16
  %7 = load ptr, ptr %6, align 8, !tbaa !4
  %8 = getelementptr inbounds nuw i8, ptr %7, i64 328
  %9 = load ptr, ptr %8, align 8, !tbaa !31
  br label %10

10:                                               ; preds = %10, %5
  %.122.i.i = phi i32 [ 0, %5 ], [ %19, %10 ]
  %.02021.i.i = phi i64 [ 0, %5 ], [ %20, %10 ]
  %11 = phi double [ 0.000000e+00, %5 ], [ %17, %10 ]
  %12 = getelementptr inbounds nuw i64, ptr %9, i64 %.02021.i.i
  %13 = load i64, ptr %12, align 8, !tbaa !48
  %14 = uitofp i64 %13 to double
  %15 = getelementptr inbounds nuw [1000 x double], ptr @histogram_energies, i64 0, i64 %.02021.i.i
  %16 = load double, ptr %15, align 8, !tbaa !29
  %17 = tail call nsz double @llvm.fmuladd.f64(double %14, double %16, double %11)
  %18 = trunc i64 %13 to i32
  %19 = add i32 %.122.i.i, %18
  %20 = add nuw nsw i64 %.02021.i.i, 1
  %exitcond.not.i.i = icmp eq i64 %20, 1000
  br i1 %exitcond.not.i.i, label %ebur128_calc_relative_threshold.exit.i, label %10, !llvm.loop !50

ebur128_calc_relative_threshold.exit.i:           ; preds = %10
  %.not.i.i = icmp eq i32 %19, 0
  %21 = sitofp i32 %19 to double
  %22 = fdiv nsz double %17, %21
  %23 = fmul nsz double %22, 1.000000e-01
  br i1 %.not.i.i, label %.sink.split.i, label %24

24:                                               ; preds = %ebur128_calc_relative_threshold.exit.i
  %25 = load double, ptr @histogram_energy_boundaries, align 16, !tbaa !29
  %26 = fcmp nsz olt double %23, %25
  br i1 %26, label %.preheader.us.i.preheader, label %.preheader2.i

.preheader2.i:                                    ; preds = %24, %.preheader2.i
  %.08.i.i = phi i64 [ %..08.i.i, %.preheader2.i ], [ 1000, %24 ]
  %.0.i.i = phi i64 [ %.0..i.i, %.preheader2.i ], [ 0, %24 ]
  %27 = add nuw i64 %.0.i.i, %.08.i.i
  %28 = lshr i64 %27, 1
  %29 = getelementptr inbounds nuw [1001 x double], ptr @histogram_energy_boundaries, i64 0, i64 %28
  %30 = load double, ptr %29, align 8, !tbaa !29
  %31 = fcmp nsz ult double %23, %30
  %..08.i.i = select i1 %31, i64 %28, i64 %.08.i.i
  %.0..i.i = select i1 %31, i64 %.0.i.i, i64 %28
  %32 = sub nsw i64 %..08.i.i, %.0..i.i
  %.not.i42.i = icmp eq i64 %32, 1
  br i1 %.not.i42.i, label %find_histogram_index.exit.i, label %.preheader2.i, !llvm.loop !47

find_histogram_index.exit.i:                      ; preds = %.preheader2.i
  %33 = getelementptr inbounds nuw [1000 x double], ptr @histogram_energies, i64 0, i64 %.0..i.i
  %34 = load double, ptr %33, align 8, !tbaa !29
  %35 = fcmp nsz ogt double %23, %34
  %36 = zext i1 %35 to i64
  %.0.i = add nuw i64 %.0..i.i, %36
  %37 = icmp ult i64 %.0.i, 1000
  br i1 %37, label %.preheader.us.i.preheader, label %.sink.split.i

.preheader.us.i.preheader:                        ; preds = %find_histogram_index.exit.i, %24
  %.0316.us.i.ph = phi i64 [ 0, %24 ], [ %.0.i, %find_histogram_index.exit.i ]
  br label %.preheader.us.i

.preheader.us.i:                                  ; preds = %.preheader.us.i.preheader, %.preheader.us.i
  %.0316.us.i = phi i64 [ %45, %.preheader.us.i ], [ %.0316.us.i.ph, %.preheader.us.i.preheader ]
  %.1345.us.i = phi i64 [ %44, %.preheader.us.i ], [ 0, %.preheader.us.i.preheader ]
  %.1364.us.i = phi double [ %43, %.preheader.us.i ], [ 0.000000e+00, %.preheader.us.i.preheader ]
  %38 = getelementptr inbounds nuw i64, ptr %9, i64 %.0316.us.i
  %39 = load i64, ptr %38, align 8, !tbaa !48
  %40 = uitofp i64 %39 to double
  %41 = getelementptr inbounds nuw [1000 x double], ptr @histogram_energies, i64 0, i64 %.0316.us.i
  %42 = load double, ptr %41, align 8, !tbaa !29
  %43 = tail call nsz double @llvm.fmuladd.f64(double %40, double %42, double %.1364.us.i)
  %44 = add i64 %39, %.1345.us.i
  %45 = add nuw i64 %.0316.us.i, 1
  %exitcond.not.i = icmp eq i64 %45, 1000
  br i1 %exitcond.not.i, label %.split11.i, label %.preheader.us.i, !llvm.loop !51

.split11.i:                                       ; preds = %.preheader.us.i
  %.not40.i = icmp eq i64 %44, 0
  br i1 %.not40.i, label %.sink.split.i, label %46

46:                                               ; preds = %.split11.i
  %47 = uitofp i64 %44 to double
  %48 = fdiv nsz double %43, %47
  %49 = tail call nsz double @llvm.log10.f64(double %48)
  %50 = tail call nsz noundef double @llvm.fmuladd.f64(double %49, double 1.000000e+01, double -6.910000e-01)
  br label %.sink.split.i

.sink.split.i:                                    ; preds = %46, %.split11.i, %find_histogram_index.exit.i, %ebur128_calc_relative_threshold.exit.i
  %.sink.i = phi double [ %50, %46 ], [ 0xFFF0000000000000, %ebur128_calc_relative_threshold.exit.i ], [ 0xFFF0000000000000, %find_histogram_index.exit.i ], [ 0xFFF0000000000000, %.split11.i ]
  store double %.sink.i, ptr %1, align 8, !tbaa !29
  br label %ebur128_gated_loudness.exit

ebur128_gated_loudness.exit:                      ; preds = %2, %.sink.split.i
  %.037.i = phi i32 [ -22, %2 ], [ 0, %.sink.split.i ]
  ret i32 %.037.i
}